; ModuleID = '9/1541.c'
source_filename = "9/1541.c"
target datalayout = "e-m:e-p270:32:32-p271:32:32-p272:64:64-i64:64-f80:128-n8:16:32:64-S128"
target triple = "x86_64-pc-linux-gnu"

%struct.node = type { [100 x i8], i32, i32 }

@a = common dso_local global [1000 x %struct.node] zeroinitializer, align 16
@.str = private unnamed_addr constant [3 x i8] c"%d\00", align 1
@.str.1 = private unnamed_addr constant [6 x i8] c"%s %d\00", align 1
@b = common dso_local global %struct.node zeroinitializer, align 4
@.str.2 = private unnamed_addr constant [4 x i8] c"%s\0A\00", align 1

; Function Attrs: noinline nounwind uwtable
define dso_local i32 @check(i32 %0, i32 %1) #0 {
  %3 = alloca i32, align 4
  %4 = alloca i32, align 4
  %5 = alloca i32, align 4
  store i32 %0, i32* %4, align 4
  store i32 %1, i32* %5, align 4
  %6 = load i32, i32* %5, align 4
  %7 = sext i32 %6 to i64
  %8 = getelementptr inbounds [1000 x %struct.node], [1000 x %struct.node]* @a, i64 0, i64 %7
  %9 = getelementptr inbounds %struct.node, %struct.node* %8, i32 0, i32 1
  %10 = load i32, i32* %9, align 4
  %11 = icmp slt i32 %10, 60
  br i1 %11, label %12, label %20

12:                                               ; preds = %2
  %13 = load i32, i32* %4, align 4
  %14 = sext i32 %13 to i64
  %15 = getelementptr inbounds [1000 x %struct.node], [1000 x %struct.node]* @a, i64 0, i64 %14
  %16 = getelementptr inbounds %struct.node, %struct.node* %15, i32 0, i32 1
  %17 = load i32, i32* %16, align 4
  %18 = icmp sge i32 %17, 60
  br i1 %18, label %19, label %20

19:                                               ; preds = %12
  store i32 0, i32* %3, align 4
  br label %142

20:                                               ; preds = %12, %2
  %21 = load i32, i32* %5, align 4
  %22 = sext i32 %21 to i64
  %23 = getelementptr inbounds [1000 x %struct.node], [1000 x %struct.node]* @a, i64 0, i64 %22
  %24 = getelementptr inbounds %struct.node, %struct.node* %23, i32 0, i32 1
  %25 = load i32, i32* %24, align 4
  %26 = icmp sge i32 %25, 60
  br i1 %26, label %27, label %35

27:                                               ; preds = %20
  %28 = load i32, i32* %4, align 4
  %29 = sext i32 %28 to i64
  %30 = getelementptr inbounds [1000 x %struct.node], [1000 x %struct.node]* @a, i64 0, i64 %29
  %31 = getelementptr inbounds %struct.node, %struct.node* %30, i32 0, i32 1
  %32 = load i32, i32* %31, align 4
  %33 = icmp slt i32 %32, 60
  br i1 %33, label %34, label %35

34:                                               ; preds = %27
  store i32 1, i32* %3, align 4
  br label %142

35:                                               ; preds = %27, %20
  %36 = load i32, i32* %4, align 4
  %37 = sext i32 %36 to i64
  %38 = getelementptr inbounds [1000 x %struct.node], [1000 x %struct.node]* @a, i64 0, i64 %37
  %39 = getelementptr inbounds %struct.node, %struct.node* %38, i32 0, i32 1
  %40 = load i32, i32* %39, align 4
  %41 = icmp slt i32 %40, 60
  br i1 %41, label %42, label %62

42:                                               ; preds = %35
  %43 = load i32, i32* %5, align 4
  %44 = sext i32 %43 to i64
  %45 = getelementptr inbounds [1000 x %struct.node], [1000 x %struct.node]* @a, i64 0, i64 %44
  %46 = getelementptr inbounds %struct.node, %struct.node* %45, i32 0, i32 1
  %47 = load i32, i32* %46, align 4
  %48 = icmp slt i32 %47, 60
  br i1 %48, label %49, label %62

49:                                               ; preds = %42
  %50 = load i32, i32* %4, align 4
  %51 = sext i32 %50 to i64
  %52 = getelementptr inbounds [1000 x %struct.node], [1000 x %struct.node]* @a, i64 0, i64 %51
  %53 = getelementptr inbounds %struct.node, %struct.node* %52, i32 0, i32 2
  %54 = load i32, i32* %53, align 4
  %55 = load i32, i32* %5, align 4
  %56 = sext i32 %55 to i64
  %57 = getelementptr inbounds [1000 x %struct.node], [1000 x %struct.node]* @a, i64 0, i64 %56
  %58 = getelementptr inbounds %struct.node, %struct.node* %57, i32 0, i32 2
  %59 = load i32, i32* %58, align 4
  %60 = icmp sgt i32 %54, %59
  br i1 %60, label %61, label %62

61:                                               ; preds = %49
  store i32 1, i32* %3, align 4
  br label %142

62:                                               ; preds = %49, %42, %35
  %63 = load i32, i32* %4, align 4
  %64 = sext i32 %63 to i64
  %65 = getelementptr inbounds [1000 x %struct.node], [1000 x %struct.node]* @a, i64 0, i64 %64
  %66 = getelementptr inbounds %struct.node, %struct.node* %65, i32 0, i32 1
  %67 = load i32, i32* %66, align 4
  %68 = icmp slt i32 %67, 60
  br i1 %68, label %69, label %89

69:                                               ; preds = %62
  %70 = load i32, i32* %5, align 4
  %71 = sext i32 %70 to i64
  %72 = getelementptr inbounds [1000 x %struct.node], [1000 x %struct.node]* @a, i64 0, i64 %71
  %73 = getelementptr inbounds %struct.node, %struct.node* %72, i32 0, i32 1
  %74 = load i32, i32* %73, align 4
  %75 = icmp slt i32 %74, 60
  br i1 %75, label %76, label %89

76:                                               ; preds = %69
  %77 = load i32, i32* %4, align 4
  %78 = sext i32 %77 to i64
  %79 = getelementptr inbounds [1000 x %struct.node], [1000 x %struct.node]* @a, i64 0, i64 %78
  %80 = getelementptr inbounds %struct.node, %struct.node* %79, i32 0, i32 2
  %81 = load i32, i32* %80, align 4
  %82 = load i32, i32* %5, align 4
  %83 = sext i32 %82 to i64
  %84 = getelementptr inbounds [1000 x %struct.node], [1000 x %struct.node]* @a, i64 0, i64 %83
  %85 = getelementptr inbounds %struct.node, %struct.node* %84, i32 0, i32 2
  %86 = load i32, i32* %85, align 4
  %87 = icmp slt i32 %81, %86
  br i1 %87, label %88, label %89

88:                                               ; preds = %76
  store i32 0, i32* %3, align 4
  br label %142

89:                                               ; preds = %76, %69, %62
  %90 = load i32, i32* %4, align 4
  %91 = sext i32 %90 to i64
  %92 = getelementptr inbounds [1000 x %struct.node], [1000 x %struct.node]* @a, i64 0, i64 %91
  %93 = getelementptr inbounds %struct.node, %struct.node* %92, i32 0, i32 1
  %94 = load i32, i32* %93, align 4
  %95 = load i32, i32* %5, align 4
  %96 = sext i32 %95 to i64
  %97 = getelementptr inbounds [1000 x %struct.node], [1000 x %struct.node]* @a, i64 0, i64 %96
  %98 = getelementptr inbounds %struct.node, %struct.node* %97, i32 0, i32 1
  %99 = load i32, i32* %98, align 4
  %100 = icmp sgt i32 %94, %99
  br i1 %100, label %101, label %102

101:                                              ; preds = %89
  store i32 0, i32* %3, align 4
  br label %142

102:                                              ; preds = %89
  %103 = load i32, i32* %4, align 4
  %104 = sext i32 %103 to i64
  %105 = getelementptr inbounds [1000 x %struct.node], [1000 x %struct.node]* @a, i64 0, i64 %104
  %106 = getelementptr inbounds %struct.node, %struct.node* %105, i32 0, i32 1
  %107 = load i32, i32* %106, align 4
  %108 = load i32, i32* %5, align 4
  %109 = sext i32 %108 to i64
  %110 = getelementptr inbounds [1000 x %struct.node], [1000 x %struct.node]* @a, i64 0, i64 %109
  %111 = getelementptr inbounds %struct.node, %struct.node* %110, i32 0, i32 1
  %112 = load i32, i32* %111, align 4
  %113 = icmp slt i32 %107, %112
  br i1 %113, label %114, label %115

114:                                              ; preds = %102
  store i32 1, i32* %3, align 4
  br label %142

115:                                              ; preds = %102
  %116 = load i32, i32* %4, align 4
  %117 = sext i32 %116 to i64
  %118 = getelementptr inbounds [1000 x %struct.node], [1000 x %struct.node]* @a, i64 0, i64 %117
  %119 = getelementptr inbounds %struct.node, %struct.node* %118, i32 0, i32 2
  %120 = load i32, i32* %119, align 4
  %121 = load i32, i32* %5, align 4
  %122 = sext i32 %121 to i64
  %123 = getelementptr inbounds [1000 x %struct.node], [1000 x %struct.node]* @a, i64 0, i64 %122
  %124 = getelementptr inbounds %struct.node, %struct.node* %123, i32 0, i32 2
  %125 = load i32, i32* %124, align 4
  %126 = icmp slt i32 %120, %125
  br i1 %126, label %127, label %128

127:                                              ; preds = %115
  store i32 0, i32* %3, align 4
  br label %142

128:                                              ; preds = %115
  %129 = load i32, i32* %4, align 4
  %130 = sext i32 %129 to i64
  %131 = getelementptr inbounds [1000 x %struct.node], [1000 x %struct.node]* @a, i64 0, i64 %130
  %132 = getelementptr inbounds %struct.node, %struct.node* %131, i32 0, i32 2
  %133 = load i32, i32* %132, align 4
  %134 = load i32, i32* %5, align 4
  %135 = sext i32 %134 to i64
  %136 = getelementptr inbounds [1000 x %struct.node], [1000 x %struct.node]* @a, i64 0, i64 %135
  %137 = getelementptr inbounds %struct.node, %struct.node* %136, i32 0, i32 2
  %138 = load i32, i32* %137, align 4
  %139 = icmp sgt i32 %133, %138
  br i1 %139, label %140, label %141

140:                                              ; preds = %128
  store i32 1, i32* %3, align 4
  br label %142

141:                                              ; preds = %128
  store i32 0, i32* %3, align 4
  br label %142

142:                                              ; preds = %141, %140, %127, %114, %101, %88, %61, %34, %19
  %143 = load i32, i32* %3, align 4
  ret i32 %143
}

; Function Attrs: noinline nounwind uwtable
define dso_local i32 @main() #0 {
  %1 = alloca i32, align 4
  %2 = alloca i32, align 4
  %3 = alloca i32, align 4
  %4 = alloca i32, align 4
  store i32 0, i32* %1, align 4
  %5 = call i32 (i8*, ...) @__isoc99_scanf(i8* getelementptr inbounds ([3 x i8], [3 x i8]* @.str, i64 0, i64 0), i32* %4)
  store i32 1, i32* %2, align 4
  br label %6

6:                                                ; preds = %25, %0
  %7 = load i32, i32* %2, align 4
  %8 = load i32, i32* %4, align 4
  %9 = icmp sle i32 %7, %8
  br i1 %9, label %10, label %28

10:                                               ; preds = %6
  %11 = load i32, i32* %2, align 4
  %12 = sext i32 %11 to i64
  %13 = getelementptr inbounds [1000 x %struct.node], [1000 x %struct.node]* @a, i64 0, i64 %12
  %14 = getelementptr inbounds %struct.node, %struct.node* %13, i32 0, i32 0
  %15 = load i32, i32* %2, align 4
  %16 = sext i32 %15 to i64
  %17 = getelementptr inbounds [1000 x %struct.node], [1000 x %struct.node]* @a, i64 0, i64 %16
  %18 = getelementptr inbounds %struct.node, %struct.node* %17, i32 0, i32 1
  %19 = call i32 (i8*, ...) @__isoc99_scanf(i8* getelementptr inbounds ([6 x i8], [6 x i8]* @.str.1, i64 0, i64 0), [100 x i8]* %14, i32* %18)
  %20 = load i32, i32* %2, align 4
  %21 = load i32, i32* %2, align 4
  %22 = sext i32 %21 to i64
  %23 = getelementptr inbounds [1000 x %struct.node], [1000 x %struct.node]* @a, i64 0, i64 %22
  %24 = getelementptr inbounds %struct.node, %struct.node* %23, i32 0, i32 2
  store i32 %20, i32* %24, align 4
  br label %25

25:                                               ; preds = %10
  %26 = load i32, i32* %2, align 4
  %27 = add nsw i32 %26, 1
  store i32 %27, i32* %2, align 4
  br label %6

28:                                               ; preds = %6
  store i32 1, i32* %2, align 4
  br label %29

29:                                               ; preds = %67, %28
  %30 = load i32, i32* %2, align 4
  %31 = load i32, i32* %4, align 4
  %32 = icmp slt i32 %30, %31
  br i1 %32, label %33, label %70

33:                                               ; preds = %29
  %34 = load i32, i32* %2, align 4
  %35 = add nsw i32 %34, 1
  store i32 %35, i32* %3, align 4
  br label %36

36:                                               ; preds = %63, %33
  %37 = load i32, i32* %3, align 4
  %38 = load i32, i32* %4, align 4
  %39 = icmp sle i32 %37, %38
  br i1 %39, label %40, label %66

40:                                               ; preds = %36
  %41 = load i32, i32* %2, align 4
  %42 = load i32, i32* %3, align 4
  %43 = call i32 @check(i32 %41, i32 %42)
  %44 = icmp eq i32 %43, 1
  br i1 %44, label %45, label %62

45:                                               ; preds = %40
  %46 = load i32, i32* %2, align 4
  %47 = sext i32 %46 to i64
  %48 = getelementptr inbounds [1000 x %struct.node], [1000 x %struct.node]* @a, i64 0, i64 %47
  %49 = bitcast %struct.node* %48 to i8*
  call void @llvm.memcpy.p0i8.p0i8.i64(i8* align 4 getelementptr inbounds (%struct.node, %struct.node* @b, i32 0, i32 0, i32 0), i8* align 4 %49, i64 108, i1 false)
  %50 = load i32, i32* %2, align 4
  %51 = sext i32 %50 to i64
  %52 = getelementptr inbounds [1000 x %struct.node], [1000 x %struct.node]* @a, i64 0, i64 %51
  %53 = load i32, i32* %3, align 4
  %54 = sext i32 %53 to i64
  %55 = getelementptr inbounds [1000 x %struct.node], [1000 x %struct.node]* @a, i64 0, i64 %54
  %56 = bitcast %struct.node* %52 to i8*
  %57 = bitcast %struct.node* %55 to i8*
  call void @llvm.memcpy.p0i8.p0i8.i64(i8* align 4 %56, i8* align 4 %57, i64 108, i1 false)
  %58 = load i32, i32* %3, align 4
  %59 = sext i32 %58 to i64
  %60 = getelementptr inbounds [1000 x %struct.node], [1000 x %struct.node]* @a, i64 0, i64 %59
  %61 = bitcast %struct.node* %60 to i8*
  call void @llvm.memcpy.p0i8.p0i8.i64(i8* align 4 %61, i8* align 4 getelementptr inbounds (%struct.node, %struct.node* @b, i32 0, i32 0, i32 0), i64 108, i1 false)
  br label %62

62:                                               ; preds = %45, %40
  br label %63

63:                                               ; preds = %62
  %64 = load i32, i32* %3, align 4
  %65 = add nsw i32 %64, 1
  store i32 %65, i32* %3, align 4
  br label %36

66:                                               ; preds = %36
  br label %67

67:                                               ; preds = %66
  %68 = load i32, i32* %2, align 4
  %69 = add nsw i32 %68, 1
  store i32 %69, i32* %2, align 4
  br label %29

70:                                               ; preds = %29
  store i32 1, i32* %2, align 4
  br label %71

71:                                               ; preds = %82, %70
  %72 = load i32, i32* %2, align 4
  %73 = load i32, i32* %4, align 4
  %74 = icmp sle i32 %72, %73
  br i1 %74, label %75, label %85

75:                                               ; preds = %71
  %76 = load i32, i32* %2, align 4
  %77 = sext i32 %76 to i64
  %78 = getelementptr inbounds [1000 x %struct.node], [1000 x %struct.node]* @a, i64 0, i64 %77
  %79 = getelementptr inbounds %struct.node, %struct.node* %78, i32 0, i32 0
  %80 = getelementptr inbounds [100 x i8], [100 x i8]* %79, i64 0, i64 0
  %81 = call i32 (i8*, ...) @printf(i8* getelementptr inbounds ([4 x i8], [4 x i8]* @.str.2, i64 0, i64 0), i8* %80)
  br label %82

82:                                               ; preds = %75
  %83 = load i32, i32* %2, align 4
  %84 = add nsw i32 %83, 1
  store i32 %84, i32* %2, align 4
  br label %71

85:                                               ; preds = %71
  ret i32 0
}

declare dso_local i32 @__isoc99_scanf(i8*, ...) #1

; Function Attrs: argmemonly nounwind willreturn
declare void @llvm.memcpy.p0i8.p0i8.i64(i8* noalias nocapture writeonly, i8* noalias nocapture readonly, i64, i1 immarg) #2

declare dso_local i32 @printf(i8*, ...) #1


!llvm.module.flags = !{!0}
!llvm.ident = !{!1}

!0 = !{i32 1, !"wchar_size", i32 4}
!1 = !{!"clang version 10.0.0-4ubuntu1 "}
